; Function Attrs: mustprogress uwtable
define internal noundef i32 @_ZL21u_scanf_octal_handlerP5UFILEP17u_scanf_spec_infoP9ufmt_argsPKDsPiS7_(ptr noundef %0, ptr noundef readonly captures(none) %1, ptr noundef readonly captures(none) %2, ptr readnone captures(none) %3, ptr readnone captures(none) %4, ptr noundef writeonly captures(none) %5) #0 {
  %7 = alloca i16, align 2
  %8 = alloca i32, align 4
  call void @llvm.lifetime.start.p0(i64 4, ptr nonnull %8) #6
  %9 = load ptr, ptr %2, align 8, !tbaa !33
  %10 = getelementptr inbounds nuw i8, ptr %1, i64 6
  %11 = load i16, ptr %10, align 2, !tbaa !16
  call void @llvm.lifetime.start.p0(i64 2, ptr nonnull %7) #6
  br label %12

12:                                               ; preds = %.critedge2.i, %6
  %.0.i = phi i32 [ 0, %6 ], [ %20, %.critedge2.i ]
  %13 = call signext i8 @ufile_getch_77(ptr noundef %0, ptr noundef nonnull %7)
  switch i8 %13, label %.critedge.i [
    i8 1, label %14
    i8 0, label %_ZL23u_scanf_skip_leading_wsP5UFILEDs.exit
  ]

14:                                               ; preds = %12
  %15 = load i16, ptr %7, align 2, !tbaa !7
  %16 = icmp eq i16 %15, %11
  br i1 %16, label %.critedge2.i, label %17

17:                                               ; preds = %14
  %18 = zext i16 %15 to i32
  %19 = call signext i8 @u_isWhitespace_77(i32 noundef %18)
  %.not.i = icmp eq i8 %19, 0
  br i1 %.not.i, label %.critedge.i, label %.critedge2.i

.critedge2.i:                                     ; preds = %17, %14
  %20 = add nuw nsw i32 %.0.i, 1
  br label %12, !llvm.loop !38

.critedge.i:                                      ; preds = %17, %12
  %21 = load i16, ptr %7, align 2, !tbaa !7
  %22 = zext i16 %21 to i32
  %23 = call i32 @u_fungetc_77(i32 noundef %22, ptr noundef %0)
  br label %_ZL23u_scanf_skip_leading_wsP5UFILEDs.exit

_ZL23u_scanf_skip_leading_wsP5UFILEDs.exit:       ; preds = %12, %.critedge.i
  call void @llvm.lifetime.end.p0(i64 2, ptr nonnull %7) #6
  call void @_Z26ufile_fill_uchar_buffer_77P5UFILE(ptr noundef %0)
  %24 = getelementptr inbounds nuw i8, ptr %0, i64 24
  %25 = getelementptr inbounds nuw i8, ptr %0, i64 32
  %26 = load ptr, ptr %25, align 8, !tbaa !39
  %27 = load ptr, ptr %24, align 8, !tbaa !47
  %28 = ptrtoint ptr %26 to i64
  %29 = ptrtoint ptr %27 to i64
  %30 = sub i64 %28, %29
  %31 = lshr exact i64 %30, 1
  %32 = trunc i64 %31 to i32
  store i32 %32, ptr %8, align 4, !tbaa !3
  %33 = load i32, ptr %1, align 4, !tbaa !14
  %.not = icmp eq i32 %33, -1
  br i1 %.not, label %35, label %34

34:                                               ; preds = %_ZL23u_scanf_skip_leading_wsP5UFILEDs.exit
  %. = call i32 @llvm.smin.i32(i32 %33, i32 %32)
  store i32 %., ptr %8, align 4, !tbaa !3
  br label %35

35:                                               ; preds = %34, %_ZL23u_scanf_skip_leading_wsP5UFILEDs.exit
  %36 = call noundef i64 @_Z13ufmt_uto64_77PKDsPia(ptr noundef %27, ptr noundef nonnull %8, i8 noundef signext 8)
  %37 = load i32, ptr %8, align 4, !tbaa !3
  %38 = load ptr, ptr %24, align 8, !tbaa !47
  %39 = sext i32 %37 to i64
  %40 = getelementptr inbounds i16, ptr %38, i64 %39
  store ptr %40, ptr %24, align 8, !tbaa !47
  %41 = getelementptr inbounds nuw i8, ptr %1, i64 8
  %42 = load i8, ptr %41, align 4, !tbaa !19
  %.not23 = icmp eq i8 %42, 0
  br i1 %.not23, label %43, label %54

43:                                               ; preds = %35
  %44 = getelementptr inbounds nuw i8, ptr %1, i64 10
  %45 = load i8, ptr %44, align 2, !tbaa !22
  %.not24 = icmp eq i8 %45, 0
  br i1 %.not24, label %48, label %46

46:                                               ; preds = %43
  %47 = trunc i64 %36 to i16
  store i16 %47, ptr %9, align 2, !tbaa !56
  br label %54

48:                                               ; preds = %43
  %49 = getelementptr inbounds nuw i8, ptr %1, i64 12
  %50 = load i8, ptr %49, align 4, !tbaa !23
  %.not25 = icmp eq i8 %50, 0
  br i1 %.not25, label %52, label %51

51:                                               ; preds = %48
  store i64 %36, ptr %9, align 8, !tbaa !58
  br label %54

52:                                               ; preds = %48
  %53 = trunc i64 %36 to i32
  store i32 %53, ptr %9, align 4, !tbaa !3
  br label %54

54:                                               ; preds = %46, %52, %51, %35
  %55 = zext i1 %.not23 to i32
  store i32 %55, ptr %5, align 4, !tbaa !3
  %56 = add nsw i32 %37, %.0.i
  call void @llvm.lifetime.end.p0(i64 4, ptr nonnull %8) #6
  ret i32 %56
}